Certificate:
    Data:
        Version: 3 (0x2)
        Serial Number:
            d4:11:36:6e:6d:bb:d9:68:7a:c4:32:9d:74:3c:21:cf
        Signature Algorithm: sha256WithRSAEncryption
        Issuer: CN=Easy-RSA CA
        Validity
            Not Before: Oct  4 17:07:33 2024 GMT
            Not After : Jul  4 17:07:33 2034 GMT
        Subject: C=SG, ST=SG, L=Singapore, O=BullBlock, OU=IT, CN=client.paraview.biz/emailAddress=steven.liang@pm.me
        Subject Public Key Info:
            Public Key Algorithm: rsaEncryption
                Public-Key: (2048 bit)
                Modulus:
                    00:b6:76:89:38:62:3a:d5:1f:5e:6b:9c:7f:f8:dc:
                    0a:a6:82:10:12:4e:28:ff:8f:33:5e:42:15:68:79:
                    96:f9:1e:93:37:b3:cd:f6:96:f5:01:a3:f9:7e:6b:
                    c7:61:56:c1:97:62:01:bd:66:65:fe:d5:b5:33:6d:
                    ff:e8:8d:27:91:8f:a6:aa:f5:13:d1:b8:5b:8c:24:
                    6c:c2:0a:79:1a:0c:27:61:d4:6f:5d:14:75:98:36:
                    66:45:94:1e:55:48:66:65:13:fd:a5:20:03:ee:6c:
                    00:34:12:01:29:21:05:4a:dc:3a:63:53:22:03:ab:
                    56:34:4b:92:79:f2:e4:e6:8f:3e:01:36:b4:f5:0b:
                    3c:c0:4b:19:7a:0b:79:60:63:14:91:85:d0:91:01:
                    87:be:43:99:d1:73:14:6d:af:70:bf:32:ac:fa:aa:
                    73:3c:63:f6:78:95:b0:ec:42:5b:bd:8c:dc:ea:79:
                    b4:5a:47:f3:89:90:7e:04:7a:e8:ea:b6:c8:aa:00:
                    4d:fa:48:d8:43:aa:45:e1:2d:26:91:76:09:66:5f:
                    22:68:b1:bf:15:cf:03:67:ac:0e:00:bb:0a:68:8a:
                    18:55:5a:26:b0:f7:e7:4e:a5:e4:61:6e:08:e8:f1:
                    43:ad:63:c6:20:61:5a:46:44:19:4f:27:3d:94:4f:
                    72:7d
                Exponent: 65537 (0x10001)
        X509v3 extensions:
            X509v3 Basic Constraints: 
                CA:FALSE
            X509v3 Subject Key Identifier: 
                CA:3B:C4:DB:80:74:E0:E3:66:76:9C:71:FF:34:FA:7B:42:ED:CC:41
            X509v3 Authority Key Identifier: 
                keyid:9F:A9:4B:92:BD:90:D6:8E:FB:FC:6B:70:CF:8C:F5:D5:07:CA:B1:C7
                DirName:/CN=Easy-RSA CA
                serial:42:54:2A:12:37:72:89:5D:8A:E1:DC:4C:2B:A1:1C:C0:6B:3A:82
            X509v3 Extended Key Usage: 
                TLS Web Client Authentication
            X509v3 Key Usage: 
                Digital Signature
    Signature Algorithm: sha256WithRSAEncryption
    Signature Value:
        72:ac:53:f3:6e:88:ca:63:d2:21:a4:44:1b:14:66:fc:2a:b6:
        9b:2c:35:7b:66:83:ff:e5:1c:e0:02:de:22:e9:29:1f:fa:9d:
        ed:13:08:e9:13:20:f9:52:ed:9e:19:40:de:b5:b8:0f:5a:f7:
        69:ce:b2:69:c1:e5:24:92:27:98:14:cf:00:f4:e3:a9:ca:27:
        df:2b:f2:56:30:39:d4:a2:08:89:71:cc:65:35:c1:c0:72:74:
        10:97:8e:c0:96:76:e0:ff:9a:b5:9e:f3:ee:e1:aa:92:30:72:
        d8:e8:b9:dc:d9:0b:4f:81:df:f4:3a:a2:f1:52:45:51:c3:83:
        dd:17:00:55:29:74:c3:25:16:6b:bb:90:a5:38:e4:5c:a5:de:
        b9:83:b3:64:4a:f7:d4:c9:88:31:7e:5d:18:f1:9d:40:38:ca:
        4a:03:71:e3:8a:eb:c4:c9:8f:7d:00:27:2f:91:a4:90:be:39:
        8b:ab:44:96:a6:59:1b:3e:9a:12:f6:a0:77:96:6c:20:f1:cb:
        33:a2:de:6a:7c:ff:25:b9:dd:74:dc:19:f0:72:4f:25:96:6f:
        81:11:a7:1c:a3:d9:d5:3e:d0:bd:78:f7:b2:d3:8a:ad:21:42:
        65:46:43:69:1e:38:1c:85:62:e9:09:37:68:01:3e:da:9c:b2:
        3f:0a:23:12
-----BEGIN CERTIFICATE-----
MIID1DCCArygAwIBAgIRANQRNm5tu9loesQynXQ8Ic8wDQYJKoZIhvcNAQELBQAw
FjEUMBIGA1UEAwwLRWFzeS1SU0EgQ0EwHhcNMjQxMDA0MTcwNzMzWhcNMzQwNzA0
MTcwNzMzWjCBkDELMAkGA1UEBhMCU0cxCzAJBgNVBAgMAlNHMRIwEAYDVQQHDAlT
aW5nYXBvcmUxEjAQBgNVBAoMCUJ1bGxCbG9jazELMAkGA1UECwwCSVQxHDAaBgNV
BAMME2NsaWVudC5wYXJhdmlldy5iaXoxITAfBgkqhkiG9w0BCQEWEnN0ZXZlbi5s
aWFuZ0BwbS5tZTCCASIwDQYJKoZIhvcNAQEBBQADggEPADCCAQoCggEBALZ2iThi
OtUfXmucf/jcCqaCEBJOKP+PM15CFWh5lvkekzezzfaW9QGj+X5rx2FWwZdiAb1m
Zf7VtTNt/+iNJ5GPpqr1E9G4W4wkbMIKeRoMJ2HUb10UdZg2ZkWUHlVIZmUT/aUg
A+5sADQSASkhBUrcOmNTIgOrVjRLknny5OaPPgE2tPULPMBLGXoLeWBjFJGF0JEB
h75DmdFzFG2vcL8yrPqqczxj9niVsOxCW72M3Op5tFpH84mQfgR66Oq2yKoATfpI
2EOqReEtJpF2CWZfImixvxXPA2esDgC7CmiKGFVaJrD3506l5GFuCOjxQ61jxiBh
WkZEGU8nPZRPcn0CAwEAAaOBoTCBnjAJBgNVHRMEAjAAMB0GA1UdDgQWBBTKO8Tb
gHTg42Z2nHH/NPp7Qu3MQTBQBgNVHSMESTBHgBSfqUuSvZDWjvv8a3DPjPXVB8qx
x6EapBgwFjEUMBIGA1UEAwwLRWFzeS1SU0EgQ0GCE0JUKhI3coldiuHcTCuhHMBr
OoIwEwYDVR0lBAwwCgYIKwYBBQUHAwIwCwYDVR0PBAQDAgeAMA0GCSqGSIb3DQEB
CwUAA4IBAQByrFPzbojKY9IhpEQbFGb8KrabLDV7ZoP/5RzgAt4i6Skf+p3tEwjp
EyD5Uu2eGUDetbgPWvdpzrJpweUkkieYFM8A9OOpyiffK/JWMDnUogiJccxlNcHA
cnQQl47Alnbg/5q1nvPu4aqSMHLY6Lnc2QtPgd/0OqLxUkVRw4PdFwBVKXTDJRZr
u5ClOORcpd65g7NkSvfUyYgxfl0Y8Z1AOMpKA3HjiuvEyY99ACcvkaSQvjmLq0SW
plkbPpoS9qB3lmwg8cszot5qfP8lud103Bnwck8llm+BEacco9nVPtC9ePey04qt
IUJlRkNpHjgchWLpCTdoAT7anLI/CiMS
-----END CERTIFICATE-----
